target datalayout = "e-m:e-p270:32:32-p271:32:32-p272:64:64-i64:64-i128:128-f80:128-n8:16:32:64-S128"
target triple = "x86_64-pc-linux-gnu"

%"class.gmx::BasicVector" = type { [3 x i32] }
%"class.gmx::BasicVector.13" = type { [3 x double] }
%"struct.gmx::GaussianSpreadKernelParameters::Shape" = type { %"class.gmx::BasicVector.13", double }

; Function Attrs: mustprogress nounwind uwtable
define linkonce_odr void @_ZN3gmx11BasicVectorIiEC2Eiii(ptr noundef nonnull align 4 dereferenceable(12) %0, i32 noundef %1, i32 noundef %2, i32 noundef %3) unnamed_addr #2 comdat align 2 {
  %5 = alloca ptr, align 8
  %6 = alloca i32, align 4
  %7 = alloca i32, align 4
  %8 = alloca i32, align 4
  store ptr %0, ptr %5, align 8, !tbaa !162
  store i32 %1, ptr %6, align 4, !tbaa !9
  store i32 %2, ptr %7, align 4, !tbaa !9
  store i32 %3, ptr %8, align 4, !tbaa !9
  %9 = load ptr, ptr %5, align 8
  %10 = getelementptr inbounds nuw %"class.gmx::BasicVector", ptr %9, i32 0, i32 0
  %11 = load i32, ptr %6, align 4, !tbaa !9
  store i32 %11, ptr %10, align 4, !tbaa !9
  %12 = getelementptr inbounds i32, ptr %10, i64 1
  %13 = load i32, ptr %7, align 4, !tbaa !9
  store i32 %13, ptr %12, align 4, !tbaa !9
  %14 = getelementptr inbounds i32, ptr %10, i64 2
  %15 = load i32, ptr %8, align 4, !tbaa !9
  store i32 %15, ptr %14, align 4, !tbaa !9
  ret void
}

; Function Attrs: mustprogress uwtable
define linkonce_odr { i64, i32 } @_ZNK3gmx11BasicVectorIdE6toIVecEv(ptr noundef nonnull align 8 dereferenceable(24) %0) #0 comdat align 2 {
  %2 = alloca %"class.gmx::BasicVector", align 4
  %3 = alloca ptr, align 8
  %4 = alloca { i64, i32 }, align 8
  store ptr %0, ptr %3, align 8, !tbaa !177
  %5 = load ptr, ptr %3, align 8
  %6 = getelementptr inbounds nuw %"class.gmx::BasicVector.13", ptr %5, i32 0, i32 0
  %7 = getelementptr inbounds [3 x double], ptr %6, i64 0, i64 0
  %8 = load double, ptr %7, align 8, !tbaa !26
  %9 = fptosi double %8 to i32
  %10 = getelementptr inbounds nuw %"class.gmx::BasicVector.13", ptr %5, i32 0, i32 0
  %11 = getelementptr inbounds [3 x double], ptr %10, i64 0, i64 1
  %12 = load double, ptr %11, align 8, !tbaa !26
  %13 = fptosi double %12 to i32
  %14 = getelementptr inbounds nuw %"class.gmx::BasicVector.13", ptr %5, i32 0, i32 0
  %15 = getelementptr inbounds [3 x double], ptr %14, i64 0, i64 2
  %16 = load double, ptr %15, align 8, !tbaa !26
  %17 = fptosi double %16 to i32
  call void @_ZN3gmx11BasicVectorIiEC2Eiii(ptr noundef nonnull align 4 dereferenceable(12) %2, i32 noundef %9, i32 noundef %13, i32 noundef %17)
  %18 = getelementptr inbounds nuw %"class.gmx::BasicVector", ptr %2, i32 0, i32 0
  call void @llvm.memcpy.p0.p0.i64(ptr align 8 %4, ptr align 4 %18, i64 12, i1 false)
  %19 = load { i64, i32 }, ptr %4, align 8
  ret { i64, i32 } %19
}

; Function Attrs: mustprogress nounwind uwtable
define linkonce_odr void @_ZN3gmx11BasicVectorIdEC2Eddd(ptr noundef nonnull align 8 dereferenceable(24) %0, double noundef %1, double noundef %2, double noundef %3) unnamed_addr #2 comdat align 2 {
  %5 = alloca ptr, align 8
  %6 = alloca double, align 8
  %7 = alloca double, align 8
  %8 = alloca double, align 8
  store ptr %0, ptr %5, align 8, !tbaa !177
  store double %1, ptr %6, align 8, !tbaa !26
  store double %2, ptr %7, align 8, !tbaa !26
  store double %3, ptr %8, align 8, !tbaa !26
  %9 = load ptr, ptr %5, align 8
  %10 = getelementptr inbounds nuw %"class.gmx::BasicVector.13", ptr %9, i32 0, i32 0
  %11 = load double, ptr %6, align 8, !tbaa !26
  store double %11, ptr %10, align 8, !tbaa !26
  %12 = getelementptr inbounds double, ptr %10, i64 1
  %13 = load double, ptr %7, align 8, !tbaa !26
  store double %13, ptr %12, align 8, !tbaa !26
  %14 = getelementptr inbounds double, ptr %10, i64 2
  %15 = load double, ptr %8, align 8, !tbaa !26
  store double %15, ptr %14, align 8, !tbaa !26
  ret void
}

; Function Attrs: mustprogress nounwind uwtable
define linkonce_odr noundef double @_ZNK3gmx11BasicVectorIdEixEi(ptr noundef nonnull align 8 dereferenceable(24) %0, i32 noundef %1) #2 comdat align 2 {
  %3 = alloca ptr, align 8
  %4 = alloca i32, align 4
  store ptr %0, ptr %3, align 8, !tbaa !177
  store i32 %1, ptr %4, align 4, !tbaa !9
  %5 = load ptr, ptr %3, align 8
  %6 = getelementptr inbounds nuw %"class.gmx::BasicVector.13", ptr %5, i32 0, i32 0
  %7 = load i32, ptr %4, align 4, !tbaa !9
  %8 = sext i32 %7 to i64
  %9 = getelementptr inbounds [3 x double], ptr %6, i64 0, i64 %8
  %10 = load double, ptr %9, align 8, !tbaa !26
  ret double %10
}

; Function Attrs: mustprogress uwtable
define { i64, i32 } @_ZNK3gmx30GaussianSpreadKernelParameters5Shape18latticeSpreadRangeEv(ptr noundef nonnull align 8 dereferenceable(32) %0) #0 align 2 {
  %2 = alloca %"class.gmx::BasicVector", align 4
  %3 = alloca ptr, align 8
  %4 = alloca %"class.gmx::BasicVector.13", align 8
  %5 = alloca { i64, i32 }, align 8
  %6 = alloca { i64, i32 }, align 8
  store ptr %0, ptr %3, align 8, !tbaa !172
  %7 = load ptr, ptr %3, align 8
  call void @llvm.lifetime.start.p0(i64 24, ptr %4) #14
  %8 = getelementptr inbounds nuw %"struct.gmx::GaussianSpreadKernelParameters::Shape", ptr %7, i32 0, i32 0
  %9 = call noundef double @_ZNK3gmx11BasicVectorIdEixEi(ptr noundef nonnull align 8 dereferenceable(24) %8, i32 noundef 0)
  %10 = getelementptr inbounds nuw %"struct.gmx::GaussianSpreadKernelParameters::Shape", ptr %7, i32 0, i32 1
  %11 = load double, ptr %10, align 8, !tbaa !174
  %12 = fmul double %9, %11
  %13 = call double @llvm.ceil.f64(double %12)
  %14 = getelementptr inbounds nuw %"struct.gmx::GaussianSpreadKernelParameters::Shape", ptr %7, i32 0, i32 0
  %15 = call noundef double @_ZNK3gmx11BasicVectorIdEixEi(ptr noundef nonnull align 8 dereferenceable(24) %14, i32 noundef 1)
  %16 = getelementptr inbounds nuw %"struct.gmx::GaussianSpreadKernelParameters::Shape", ptr %7, i32 0, i32 1
  %17 = load double, ptr %16, align 8, !tbaa !174
  %18 = fmul double %15, %17
  %19 = call double @llvm.ceil.f64(double %18)
  %20 = getelementptr inbounds nuw %"struct.gmx::GaussianSpreadKernelParameters::Shape", ptr %7, i32 0, i32 0
  %21 = call noundef double @_ZNK3gmx11BasicVectorIdEixEi(ptr noundef nonnull align 8 dereferenceable(24) %20, i32 noundef 2)
  %22 = getelementptr inbounds nuw %"struct.gmx::GaussianSpreadKernelParameters::Shape", ptr %7, i32 0, i32 1
  %23 = load double, ptr %22, align 8, !tbaa !174
  %24 = fmul double %21, %23
  %25 = call double @llvm.ceil.f64(double %24)
  call void @_ZN3gmx11BasicVectorIdEC2Eddd(ptr noundef nonnull align 8 dereferenceable(24) %4, double noundef %13, double noundef %19, double noundef %25)
  %26 = call { i64, i32 } @_ZNK3gmx11BasicVectorIdE6toIVecEv(ptr noundef nonnull align 8 dereferenceable(24) %4)
  %27 = getelementptr inbounds nuw %"class.gmx::BasicVector", ptr %2, i32 0, i32 0
  store { i64, i32 } %26, ptr %5, align 8
  call void @llvm.memcpy.p0.p0.i64(ptr align 4 %27, ptr align 8 %5, i64 12, i1 false)
  call void @llvm.lifetime.end.p0(i64 24, ptr %4) #14
  %28 = getelementptr inbounds nuw %"class.gmx::BasicVector", ptr %2, i32 0, i32 0
  call void @llvm.memcpy.p0.p0.i64(ptr align 8 %6, ptr align 4 %28, i64 12, i1 false)
  %29 = load { i64, i32 }, ptr %6, align 8
  ret { i64, i32 } %29
}