; Function Attrs: mustprogress nofree norecurse nosync nounwind willreturn memory(argmem: read) uwtable
define { i64, i32 } @_ZNK3gmx30GaussianSpreadKernelParameters5Shape18latticeSpreadRangeEv(ptr noundef nonnull readonly align 8 captures(none) dereferenceable(32) %0) local_unnamed_addr #13 align 2 {
  %2 = load double, ptr %0, align 8, !tbaa !51
  %3 = getelementptr inbounds nuw i8, ptr %0, i64 24
  %4 = load double, ptr %3, align 8, !tbaa !52
  %5 = fmul double %2, %4
  %6 = tail call double @llvm.ceil.f64(double %5)
  %7 = getelementptr inbounds nuw i8, ptr %0, i64 8
  %8 = load double, ptr %7, align 8, !tbaa !51
  %9 = fmul double %4, %8
  %10 = tail call double @llvm.ceil.f64(double %9)
  %11 = getelementptr inbounds nuw i8, ptr %0, i64 16
  %12 = load double, ptr %11, align 8, !tbaa !51
  %13 = fmul double %4, %12
  %14 = tail call double @llvm.ceil.f64(double %13)
  %15 = fptosi double %6 to i32
  %16 = fptosi double %10 to i32
  %17 = fptosi double %14 to i32
  %.sroa.2.0.insert.ext.i = zext i32 %16 to i64
  %.sroa.2.0.insert.shift.i = shl nuw i64 %.sroa.2.0.insert.ext.i, 32
  %.sroa.0.0.insert.ext.i = zext i32 %15 to i64
  %.sroa.0.0.insert.insert.i = or disjoint i64 %.sroa.2.0.insert.shift.i, %.sroa.0.0.insert.ext.i
  %.fca.0.insert.i = insertvalue { i64, i32 } poison, i64 %.sroa.0.0.insert.insert.i, 0
  %.fca.1.insert.i = insertvalue { i64, i32 } %.fca.0.insert.i, i32 %17, 1
  ret { i64, i32 } %.fca.1.insert.i
}